target datalayout = "e-m:e-p270:32:32-p271:32:32-p272:64:64-i64:64-i128:128-f80:128-n8:16:32:64-S128"
target triple = "x86_64-pc-linux-gnu"

; Function Attrs: mustprogress uwtable
define noundef i64 @_ZN32pxrInternal_v0_24__pxrReserved__28GeomUtilCapsuleMeshGenerator16ComputeNumPointsEmmb(i64 noundef %0, i64 noundef %1, i1 noundef zeroext %2) #0 align 2 {
  %4 = alloca i64, align 8
  %5 = alloca i64, align 8
  %6 = alloca i64, align 8
  %7 = alloca i8, align 1
  %8 = alloca i64, align 8
  store i64 %0, ptr %5, align 8
  store i64 %1, ptr %6, align 8
  %9 = zext i1 %2 to i8
  store i8 %9, ptr %7, align 1
  %10 = load i64, ptr %5, align 8
  %11 = icmp ult i64 %10, 3
  br i1 %11, label %15, label %12

12:                                               ; preds = %3
  %13 = load i64, ptr %6, align 8
  %14 = icmp ult i64 %13, 1
  br i1 %14, label %15, label %16

15:                                               ; preds = %12, %3
  store i64 0, ptr %4, align 8
  br label %26

16:                                               ; preds = %12
  %17 = load i64, ptr %5, align 8
  %18 = load i8, ptr %7, align 1
  %19 = trunc i8 %18 to i1
  %20 = call noundef i64 @_ZN32pxrInternal_v0_24__pxrReserved__25GeomUtilMeshGeneratorBase23_ComputeNumRadialPointsEmb(i64 noundef %17, i1 noundef zeroext %19)
  store i64 %20, ptr %8, align 8
  %21 = load i64, ptr %6, align 8
  %22 = mul i64 2, %21
  %23 = load i64, ptr %8, align 8
  %24 = mul i64 %22, %23
  %25 = add i64 %24, 2
  store i64 %25, ptr %4, align 8
  br label %26

26:                                               ; preds = %16, %15
  %27 = load i64, ptr %4, align 8
  ret i64 %27
}